; Function Attrs: mustprogress uwtable
define noundef nonnull align 8 dereferenceable(200) ptr @_ZN6icu_7510UnicodeSet13complementAllERKNS_13UnicodeStringE(ptr noundef nonnull returned align 8 dereferenceable(200) %this, ptr noundef nonnull align 8 dereferenceable(64) %s) local_unnamed_addr #1 align 2 personality ptr @__gxx_personality_v0 {
entry:
  %set = alloca %"class.icu_75::UnicodeSet", align 8
  call void @_ZN6icu_7510UnicodeSetC1Ev(ptr noundef nonnull align 8 dereferenceable(200) %set)
  %fUnion.i.i.i = getelementptr inbounds i8, ptr %s, i64 8
  %fLength.i.i = getelementptr inbounds i8, ptr %s, i64 12
  %0 = load i16, ptr %fUnion.i.i.i, align 8
  %cmp.i.i5.i = icmp slt i16 %0, 0
  %1 = ashr i16 %0, 5
  %shr.i.i6.i = sext i16 %1 to i32
  %2 = load i32, ptr %fLength.i.i, align 4
  %cond.i7.i = select i1 %cmp.i.i5.i, i32 %2, i32 %shr.i.i6.i
  %cmp8.i = icmp sgt i32 %cond.i7.i, 0
  br i1 %cmp8.i, label %for.body.i, label %invoke.cont

for.body.i:                                       ; preds = %entry, %call3.i.noexc
  %i.09.i = phi i32 [ %add.i, %call3.i.noexc ], [ 0, %entry ]
  %call2.i1 = invoke noundef i32 @_ZNK6icu_7513UnicodeString8char32AtEi(ptr noundef nonnull align 8 dereferenceable(64) %s, i32 noundef %i.09.i)
          to label %call2.i.noexc unwind label %lpad.loopexit

call2.i.noexc:                                    ; preds = %for.body.i
  %call3.i2 = invoke noundef nonnull align 8 dereferenceable(200) ptr @_ZN6icu_7510UnicodeSet3addEi(ptr noundef nonnull align 8 dereferenceable(200) %set, i32 noundef %call2.i1)
          to label %call3.i.noexc unwind label %lpad.loopexit

call3.i.noexc:                                    ; preds = %call2.i.noexc
  %cmp4.i = icmp ult i32 %call2.i1, 65536
  %cond.i = select i1 %cmp4.i, i32 1, i32 2
  %add.i = add nuw nsw i32 %cond.i, %i.09.i
  %3 = load i16, ptr %fUnion.i.i.i, align 8
  %cmp.i.i.i = icmp slt i16 %3, 0
  %4 = ashr i16 %3, 5
  %shr.i.i.i = sext i16 %4 to i32
  %5 = load i32, ptr %fLength.i.i, align 4
  %cond.i.i = select i1 %cmp.i.i.i, i32 %5, i32 %shr.i.i.i
  %cmp.i = icmp slt i32 %add.i, %cond.i.i
  br i1 %cmp.i, label %for.body.i, label %invoke.cont, !llvm.loop !22

invoke.cont:                                      ; preds = %call3.i.noexc, %entry
  %call3 = invoke noundef nonnull align 8 dereferenceable(200) ptr @_ZN6icu_7510UnicodeSet13complementAllERKS0_(ptr noundef nonnull align 8 dereferenceable(200) %this, ptr noundef nonnull align 8 dereferenceable(200) %set)
          to label %invoke.cont2 unwind label %lpad.loopexit.split-lp

invoke.cont2:                                     ; preds = %invoke.cont
  call void @_ZN6icu_7510UnicodeSetD1Ev(ptr noundef nonnull align 8 dereferenceable(200) %set) #22
  ret ptr %this

lpad.loopexit:                                    ; preds = %for.body.i, %call2.i.noexc
  %lpad.loopexit3 = landingpad { ptr, i32 }
          cleanup
  br label %lpad

lpad.loopexit.split-lp:                           ; preds = %invoke.cont
  %lpad.loopexit.split-lp4 = landingpad { ptr, i32 }
          cleanup
  br label %lpad

lpad:                                             ; preds = %lpad.loopexit.split-lp, %lpad.loopexit
  %lpad.phi = phi { ptr, i32 } [ %lpad.loopexit3, %lpad.loopexit ], [ %lpad.loopexit.split-lp4, %lpad.loopexit.split-lp ]
  call void @_ZN6icu_7510UnicodeSetD1Ev(ptr noundef nonnull align 8 dereferenceable(200) %set) #22
  resume { ptr, i32 } %lpad.phi
}